target datalayout = "e-m:e-p270:32:32-p271:32:32-p272:64:64-i64:64-i128:128-f80:128-n8:16:32:64-S128"
target triple = "x86_64-pc-linux-gnu"

%struct._MAD = type { i8, i8, i8, i8, i16, i8, i8, i64, i16, i16, i32 }

@hf_opa_reserved16 = internal global i32 0, align 4
@hf_opa_reserved8 = internal global i32 0, align 4
@hf_opa_InformInfo = internal global i32 0, align 4
@hf_opa_InformInfo_GID = internal global i32 0, align 4
@hf_opa_InformInfo_LIDRangeBegin = internal global i32 0, align 4
@hf_opa_InformInfo_LIDRangeEnd = internal global i32 0, align 4
@hf_opa_InformInfo_IsGeneric = internal global i32 0, align 4
@hf_opa_InformInfo_Subscribe = internal global i32 0, align 4
@hf_opa_InformInfo_Type = internal global i32 0, align 4
@hf_opa_InformInfo_TrapNumber = internal global i32 0, align 4
@hf_opa_InformInfo_DeviceID = internal global i32 0, align 4
@hf_opa_InformInfo_QPN = internal global i32 0, align 4
@hf_opa_InformInfo_reserved = internal global i32 0, align 4
@hf_opa_InformInfo_RespTimeValue = internal global i32 0, align 4
@hf_opa_InformInfo_ProducerType = internal global i32 0, align 4
@hf_opa_InformInfo_VendorID = internal global i32 0, align 4
@ett_informinfo = internal global i32 0, align 4

; Function Attrs: null_pointer_is_valid sspstrong uwtable
define internal i32 @parse_InformInfo(ptr noundef %0, ptr noundef %1, ptr noundef %2, ptr noundef %3) #0 {
  %5 = alloca i32, align 4
  %6 = alloca ptr, align 8
  %7 = alloca ptr, align 8
  %8 = alloca ptr, align 8
  %9 = alloca ptr, align 8
  %10 = alloca i32, align 4
  %11 = alloca ptr, align 8
  %12 = alloca ptr, align 8
  %13 = alloca i8, align 1
  %14 = alloca i32, align 4
  store ptr %0, ptr %6, align 8
  store ptr %1, ptr %7, align 8
  store ptr %2, ptr %8, align 8
  store ptr %3, ptr %9, align 8
  call void @llvm.lifetime.start.p0(i64 4, ptr %10) #7
  %15 = load ptr, ptr %8, align 8
  %16 = load i32, ptr %15, align 4
  store i32 %16, ptr %10, align 4
  call void @llvm.lifetime.start.p0(i64 8, ptr %11) #7
  call void @llvm.lifetime.start.p0(i64 8, ptr %12) #7
  call void @llvm.lifetime.start.p0(i64 1, ptr %13) #7
  %17 = load ptr, ptr %6, align 8
  %18 = icmp ne ptr %17, null
  br i1 %18, label %19, label %31

19:                                               ; preds = %4
  %20 = load ptr, ptr %9, align 8
  %21 = getelementptr inbounds nuw %struct._MAD, ptr %20, i32 0, i32 3
  %22 = load i8, ptr %21, align 1
  %23 = zext i8 %22 to i32
  %24 = icmp eq i32 %23, 1
  br i1 %24, label %31, label %25

25:                                               ; preds = %19
  %26 = load ptr, ptr %9, align 8
  %27 = getelementptr inbounds nuw %struct._MAD, ptr %26, i32 0, i32 3
  %28 = load i8, ptr %27, align 1
  %29 = zext i8 %28 to i32
  %30 = icmp eq i32 %29, 18
  br i1 %30, label %31, label %34

31:                                               ; preds = %25, %19, %4
  %32 = load ptr, ptr %8, align 8
  %33 = load i32, ptr %32, align 4
  store i32 %33, ptr %5, align 4
  store i32 1, ptr %14, align 4
  br label %164

34:                                               ; preds = %25
  %35 = load ptr, ptr %6, align 8
  %36 = load i32, ptr @hf_opa_InformInfo, align 4
  %37 = load ptr, ptr %7, align 8
  %38 = load i32, ptr %10, align 4
  %39 = call ptr @proto_tree_add_item(ptr noundef %35, i32 noundef %36, ptr noundef %37, i32 noundef %38, i32 noundef 40, i32 noundef 0)
  store ptr %39, ptr %11, align 8
  %40 = load ptr, ptr %11, align 8
  %41 = load i32, ptr @ett_informinfo, align 4
  %42 = call ptr @proto_item_add_subtree(ptr noundef %40, i32 noundef %41)
  store ptr %42, ptr %12, align 8
  %43 = load ptr, ptr %12, align 8
  %44 = load i32, ptr @hf_opa_InformInfo_GID, align 4
  %45 = load ptr, ptr %7, align 8
  %46 = load i32, ptr %10, align 4
  %47 = call ptr @proto_tree_add_item(ptr noundef %43, i32 noundef %44, ptr noundef %45, i32 noundef %46, i32 noundef 16, i32 noundef 0)
  %48 = load i32, ptr %10, align 4
  %49 = add i32 %48, 16
  store i32 %49, ptr %10, align 4
  %50 = load ptr, ptr %12, align 8
  %51 = load i32, ptr @hf_opa_InformInfo_LIDRangeBegin, align 4
  %52 = load ptr, ptr %7, align 8
  %53 = load i32, ptr %10, align 4
  %54 = call ptr @proto_tree_add_item(ptr noundef %50, i32 noundef %51, ptr noundef %52, i32 noundef %53, i32 noundef 4, i32 noundef 0)
  %55 = load i32, ptr %10, align 4
  %56 = add i32 %55, 4
  store i32 %56, ptr %10, align 4
  %57 = load ptr, ptr %12, align 8
  %58 = load i32, ptr @hf_opa_InformInfo_LIDRangeEnd, align 4
  %59 = load ptr, ptr %7, align 8
  %60 = load i32, ptr %10, align 4
  %61 = call ptr @proto_tree_add_item(ptr noundef %57, i32 noundef %58, ptr noundef %59, i32 noundef %60, i32 noundef 4, i32 noundef 0)
  %62 = load i32, ptr %10, align 4
  %63 = add i32 %62, 4
  store i32 %63, ptr %10, align 4
  %64 = load ptr, ptr %7, align 8
  %65 = load i32, ptr %10, align 4
  %66 = mul i32 %65, 8
  %67 = add i32 %66, 7
  %68 = call zeroext i8 @tvb_get_bits8(ptr noundef %64, i32 noundef %67, i32 noundef 1)
  %69 = icmp ne i8 %68, 0
  %70 = zext i1 %69 to i8
  store i8 %70, ptr %13, align 1
  %71 = load ptr, ptr %12, align 8
  %72 = load i32, ptr @hf_opa_InformInfo_IsGeneric, align 4
  %73 = load ptr, ptr %7, align 8
  %74 = load i32, ptr %10, align 4
  %75 = call ptr @proto_tree_add_item(ptr noundef %71, i32 noundef %72, ptr noundef %73, i32 noundef %74, i32 noundef 1, i32 noundef 0)
  %76 = load i32, ptr %10, align 4
  %77 = add i32 %76, 1
  store i32 %77, ptr %10, align 4
  %78 = load ptr, ptr %12, align 8
  %79 = load i32, ptr @hf_opa_InformInfo_Subscribe, align 4
  %80 = load ptr, ptr %7, align 8
  %81 = load i32, ptr %10, align 4
  %82 = call ptr @proto_tree_add_item(ptr noundef %78, i32 noundef %79, ptr noundef %80, i32 noundef %81, i32 noundef 1, i32 noundef 0)
  %83 = load i32, ptr %10, align 4
  %84 = add i32 %83, 1
  store i32 %84, ptr %10, align 4
  %85 = load ptr, ptr %12, align 8
  %86 = load i32, ptr @hf_opa_InformInfo_Type, align 4
  %87 = load ptr, ptr %7, align 8
  %88 = load i32, ptr %10, align 4
  %89 = call ptr @proto_tree_add_item(ptr noundef %85, i32 noundef %86, ptr noundef %87, i32 noundef %88, i32 noundef 2, i32 noundef 0)
  %90 = load i32, ptr %10, align 4
  %91 = add i32 %90, 2
  store i32 %91, ptr %10, align 4
  %92 = load ptr, ptr %12, align 8
  %93 = load i32, ptr @hf_opa_reserved16, align 4
  %94 = load ptr, ptr %7, align 8
  %95 = load i32, ptr %10, align 4
  %96 = call ptr @proto_tree_add_item(ptr noundef %92, i32 noundef %93, ptr noundef %94, i32 noundef %95, i32 noundef 2, i32 noundef 0)
  %97 = load i32, ptr %10, align 4
  %98 = add i32 %97, 2
  store i32 %98, ptr %10, align 4
  %99 = load i8, ptr %13, align 1, !range !8, !noundef !9
  %100 = trunc i8 %99 to i1
  br i1 %100, label %101, label %109

101:                                              ; preds = %34
  %102 = load ptr, ptr %12, align 8
  %103 = load i32, ptr @hf_opa_InformInfo_TrapNumber, align 4
  %104 = load ptr, ptr %7, align 8
  %105 = load i32, ptr %10, align 4
  %106 = call ptr @proto_tree_add_item(ptr noundef %102, i32 noundef %103, ptr noundef %104, i32 noundef %105, i32 noundef 2, i32 noundef 0)
  %107 = load i32, ptr %10, align 4
  %108 = add i32 %107, 2
  store i32 %108, ptr %10, align 4
  br label %117

109:                                              ; preds = %34
  %110 = load ptr, ptr %12, align 8
  %111 = load i32, ptr @hf_opa_InformInfo_DeviceID, align 4
  %112 = load ptr, ptr %7, align 8
  %113 = load i32, ptr %10, align 4
  %114 = call ptr @proto_tree_add_item(ptr noundef %110, i32 noundef %111, ptr noundef %112, i32 noundef %113, i32 noundef 2, i32 noundef 0)
  %115 = load i32, ptr %10, align 4
  %116 = add i32 %115, 2
  store i32 %116, ptr %10, align 4
  br label %117

117:                                              ; preds = %109, %101
  %118 = load ptr, ptr %12, align 8
  %119 = load i32, ptr @hf_opa_InformInfo_QPN, align 4
  %120 = load ptr, ptr %7, align 8
  %121 = load i32, ptr %10, align 4
  %122 = call ptr @proto_tree_add_item(ptr noundef %118, i32 noundef %119, ptr noundef %120, i32 noundef %121, i32 noundef 3, i32 noundef 0)
  %123 = load i32, ptr %10, align 4
  %124 = add i32 %123, 3
  store i32 %124, ptr %10, align 4
  %125 = load ptr, ptr %12, align 8
  %126 = load i32, ptr @hf_opa_InformInfo_reserved, align 4
  %127 = load ptr, ptr %7, align 8
  %128 = load i32, ptr %10, align 4
  %129 = call ptr @proto_tree_add_item(ptr noundef %125, i32 noundef %126, ptr noundef %127, i32 noundef %128, i32 noundef 1, i32 noundef 0)
  %130 = load ptr, ptr %12, align 8
  %131 = load i32, ptr @hf_opa_InformInfo_RespTimeValue, align 4
  %132 = load ptr, ptr %7, align 8
  %133 = load i32, ptr %10, align 4
  %134 = call ptr @proto_tree_add_item(ptr noundef %130, i32 noundef %131, ptr noundef %132, i32 noundef %133, i32 noundef 1, i32 noundef 0)
  %135 = load i32, ptr %10, align 4
  %136 = add i32 %135, 1
  store i32 %136, ptr %10, align 4
  %137 = load ptr, ptr %12, align 8
  %138 = load i32, ptr @hf_opa_reserved8, align 4
  %139 = load ptr, ptr %7, align 8
  %140 = load i32, ptr %10, align 4
  %141 = call ptr @proto_tree_add_item(ptr noundef %137, i32 noundef %138, ptr noundef %139, i32 noundef %140, i32 noundef 1, i32 noundef 0)
  %142 = load i32, ptr %10, align 4
  %143 = add i32 %142, 1
  store i32 %143, ptr %10, align 4
  %144 = load i8, ptr %13, align 1, !range !8, !noundef !9
  %145 = trunc i8 %144 to i1
  br i1 %145, label %146, label %154

146:                                              ; preds = %117
  %147 = load ptr, ptr %12, align 8
  %148 = load i32, ptr @hf_opa_InformInfo_ProducerType, align 4
  %149 = load ptr, ptr %7, align 8
  %150 = load i32, ptr %10, align 4
  %151 = call ptr @proto_tree_add_item(ptr noundef %147, i32 noundef %148, ptr noundef %149, i32 noundef %150, i32 noundef 3, i32 noundef 0)
  %152 = load i32, ptr %10, align 4
  %153 = add i32 %152, 3
  store i32 %153, ptr %10, align 4
  br label %162

154:                                              ; preds = %117
  %155 = load ptr, ptr %12, align 8
  %156 = load i32, ptr @hf_opa_InformInfo_VendorID, align 4
  %157 = load ptr, ptr %7, align 8
  %158 = load i32, ptr %10, align 4
  %159 = call ptr @proto_tree_add_item(ptr noundef %155, i32 noundef %156, ptr noundef %157, i32 noundef %158, i32 noundef 3, i32 noundef 0)
  %160 = load i32, ptr %10, align 4
  %161 = add i32 %160, 3
  store i32 %161, ptr %10, align 4
  br label %162

162:                                              ; preds = %154, %146
  %163 = load i32, ptr %10, align 4
  store i32 %163, ptr %5, align 4
  store i32 1, ptr %14, align 4
  br label %164

164:                                              ; preds = %162, %31
  call void @llvm.lifetime.end.p0(i64 1, ptr %13) #7
  call void @llvm.lifetime.end.p0(i64 8, ptr %12) #7
  call void @llvm.lifetime.end.p0(i64 8, ptr %11) #7
  call void @llvm.lifetime.end.p0(i64 4, ptr %10) #7
  %165 = load i32, ptr %5, align 4
  ret i32 %165
}