; Function Attrs: null_pointer_is_valid sspstrong uwtable
define internal fastcc void @parse_InformInfo(ptr noundef %0, ptr noundef %1, i32 %.0.val, ptr noundef readonly captures(none) %2) unnamed_addr #0 {
  %.not = icmp eq ptr %0, null
  br i1 %.not, label %51, label %4

4:                                                ; preds = %3
  %5 = getelementptr inbounds nuw i8, ptr %2, i64 3
  %6 = load i8, ptr %5, align 1
  switch i8 %6, label %7 [
    i8 1, label %51
    i8 18, label %51
  ]

7:                                                ; preds = %4
  %8 = load i32, ptr @hf_opa_InformInfo, align 4
  %9 = tail call ptr @proto_tree_add_item(ptr noundef nonnull %0, i32 noundef %8, ptr noundef %1, i32 noundef %.0.val, i32 noundef 40, i32 noundef 0)
  %10 = load i32, ptr @ett_informinfo, align 4
  %11 = tail call ptr @proto_item_add_subtree(ptr noundef %9, i32 noundef %10)
  %12 = load i32, ptr @hf_opa_InformInfo_GID, align 4
  %13 = tail call ptr @proto_tree_add_item(ptr noundef %11, i32 noundef %12, ptr noundef %1, i32 noundef %.0.val, i32 noundef 16, i32 noundef 0)
  %14 = add i32 %.0.val, 16
  %15 = load i32, ptr @hf_opa_InformInfo_LIDRangeBegin, align 4
  %16 = tail call ptr @proto_tree_add_item(ptr noundef %11, i32 noundef %15, ptr noundef %1, i32 noundef %14, i32 noundef 4, i32 noundef 0)
  %17 = add i32 %.0.val, 20
  %18 = load i32, ptr @hf_opa_InformInfo_LIDRangeEnd, align 4
  %19 = tail call ptr @proto_tree_add_item(ptr noundef %11, i32 noundef %18, ptr noundef %1, i32 noundef %17, i32 noundef 4, i32 noundef 0)
  %20 = add i32 %.0.val, 24
  %21 = shl i32 %20, 3
  %22 = or disjoint i32 %21, 7
  %23 = tail call zeroext i8 @tvb_get_bits8(ptr noundef %1, i32 noundef %22, i32 noundef 1)
  %.not76 = icmp eq i8 %23, 0
  %24 = load i32, ptr @hf_opa_InformInfo_IsGeneric, align 4
  %25 = tail call ptr @proto_tree_add_item(ptr noundef %11, i32 noundef %24, ptr noundef %1, i32 noundef %20, i32 noundef 1, i32 noundef 0)
  %26 = add i32 %.0.val, 25
  %27 = load i32, ptr @hf_opa_InformInfo_Subscribe, align 4
  %28 = tail call ptr @proto_tree_add_item(ptr noundef %11, i32 noundef %27, ptr noundef %1, i32 noundef %26, i32 noundef 1, i32 noundef 0)
  %29 = add i32 %.0.val, 26
  %30 = load i32, ptr @hf_opa_InformInfo_Type, align 4
  %31 = tail call ptr @proto_tree_add_item(ptr noundef %11, i32 noundef %30, ptr noundef %1, i32 noundef %29, i32 noundef 2, i32 noundef 0)
  %32 = add i32 %.0.val, 28
  %33 = load i32, ptr @hf_opa_reserved16, align 4
  %34 = tail call ptr @proto_tree_add_item(ptr noundef %11, i32 noundef %33, ptr noundef %1, i32 noundef %32, i32 noundef 2, i32 noundef 0)
  %35 = add i32 %.0.val, 30
  %hf_opa_InformInfo_DeviceID.val = load i32, ptr @hf_opa_InformInfo_DeviceID, align 4
  %hf_opa_InformInfo_TrapNumber.val = load i32, ptr @hf_opa_InformInfo_TrapNumber, align 4
  %36 = select i1 %.not76, i32 %hf_opa_InformInfo_DeviceID.val, i32 %hf_opa_InformInfo_TrapNumber.val
  %37 = tail call ptr @proto_tree_add_item(ptr noundef %11, i32 noundef %36, ptr noundef %1, i32 noundef %35, i32 noundef 2, i32 noundef 0)
  %.073 = add i32 %.0.val, 32
  %38 = load i32, ptr @hf_opa_InformInfo_QPN, align 4
  %39 = tail call ptr @proto_tree_add_item(ptr noundef %11, i32 noundef %38, ptr noundef %1, i32 noundef %.073, i32 noundef 3, i32 noundef 0)
  %40 = add i32 %.0.val, 35
  %41 = load i32, ptr @hf_opa_InformInfo_reserved, align 4
  %42 = tail call ptr @proto_tree_add_item(ptr noundef %11, i32 noundef %41, ptr noundef %1, i32 noundef %40, i32 noundef 1, i32 noundef 0)
  %43 = load i32, ptr @hf_opa_InformInfo_RespTimeValue, align 4
  %44 = tail call ptr @proto_tree_add_item(ptr noundef %11, i32 noundef %43, ptr noundef %1, i32 noundef %40, i32 noundef 1, i32 noundef 0)
  %45 = add i32 %.0.val, 36
  %46 = load i32, ptr @hf_opa_reserved8, align 4
  %47 = tail call ptr @proto_tree_add_item(ptr noundef %11, i32 noundef %46, ptr noundef %1, i32 noundef %45, i32 noundef 1, i32 noundef 0)
  %48 = add i32 %.0.val, 37
  %hf_opa_InformInfo_VendorID.val = load i32, ptr @hf_opa_InformInfo_VendorID, align 4
  %hf_opa_InformInfo_ProducerType.val = load i32, ptr @hf_opa_InformInfo_ProducerType, align 4
  %49 = select i1 %.not76, i32 %hf_opa_InformInfo_VendorID.val, i32 %hf_opa_InformInfo_ProducerType.val
  %50 = tail call ptr @proto_tree_add_item(ptr noundef %11, i32 noundef %49, ptr noundef %1, i32 noundef %48, i32 noundef 3, i32 noundef 0)
  br label %51

51:                                               ; preds = %3, %4, %4, %7
  ret void
}